ccopy_reg
_reconstructor
p0
(c__main__
overlapFinder
p1
c__builtin__
object
p2
Ntp3
Rp4
(dp5
S'first_rotation'
p6
(lp7
S'$1'
p8
aS'a1'
p9
aS'a2'
p10
aS'a3'
p11
aS'a4'
p12
aS'a5'
p13
aS'a6'
p14
aS'a7'
p15
aS'a8'
p16
aS'a9'
p17
aS'a10'
p18
aS'a11'
p19
aS'a12'
p20
aS'a13'
p21
aS'c1'
p22
aS'c2'
p23
aS'c3'
p24
aS'c4'
p25
aS'c5'
p26
aS'c6'
p27
aS'c7'
p28
aS'g1'
p29
aS'g2'
p30
aS'g3'
p31
aS'g4'
p32
aS'g5'
p33
aS'g6'
p34
aS'g7'
p35
aS't1'
p36
aS't2'
p37
aS't3'
p38
aS't4'
p39
aS't5'
p40
aS't6'
p41
aS't7'
p42
aS't8'
p43
aS't9'
p44
aS't10'
p45
asS'last_to_first'
p46
(lp47
I21
aI22
aI23
aI1
aI28
aI29
aI0
aI14
aI15
aI16
aI2
aI24
aI3
aI30
aI4
aI31
aI32
aI5
aI17
aI18
aI6
aI33
aI25
aI26
aI19
aI27
aI7
aI8
aI9
aI20
aI10
aI34
aI35
aI36
aI11
aI12
aI37
aI13
asS'bw_transform'
p48
(lp49
S'g1'
p50
aS'g2'
p51
aS'g3'
p52
aS'a1'
p53
aS't1'
p54
aS't2'
p55
aS'$1'
p56
aS'c1'
p57
aS'c2'
p58
aS'c3'
p59
aS'a2'
p60
aS'g4'
p61
aS'a3'
p62
aS't3'
p63
aS'a4'
p64
aS't4'
p65
aS't5'
p66
aS'a5'
p67
aS'c4'
p68
aS'c5'
p69
aS'a6'
p70
aS't6'
p71
aS'g5'
p72
aS'g6'
p73
aS'c6'
p74
aS'g7'
p75
aS'a7'
p76
aS'a8'
p77
aS'a9'
p78
aS'c7'
p79
aS'a10'
p80
aS't7'
p81
aS't8'
p82
aS't9'
p83
aS'a11'
p84
aS'a12'
p85
aS't10'
p86
aS'a13'
p87
asS'suffix_array'
p88
(lp89
I37
aI16
aI29
aI17
aI24
aI3
aI0
aI26
aI12
aI22
aI30
aI8
aI18
aI32
aI25
aI11
aI21
aI4
aI5
aI6
aI1
aI36
aI15
aI28
aI7
aI14
aI27
aI13
aI23
aI2
aI31
aI10
aI20
aI35
aI9
aI19
aI34
aI33
asb.